(dp1
S'output'
p2
S"<type 'exceptions.IOError'> [Errno 2] No such file or directory: '/home/andy/lib/python/web2py/applications/HaikuMaker/Project-Slojd/dict/adjectives/2syllableadjectives.txt'"
p3
sS'layer'
p4
S'/home/andy/lib/python/web2py/applications/HaikuMaker/controllers/default.py'
p5
sS'code'
p6
S'# -*- coding: utf-8 -*-\n# this file is released under public domain and you can use without limitations\n\n#########################################################################\n## This is a sample controller\n## - index is the default action of any application\n## - user is required for authentication and authorization\n## - download is for downloading files uploaded in the db (does streaming)\n## - api is an example of Hypermedia API support and access control\n#########################################################################\nimport indexmod\ndef index():\n    blah = randomness(5)\n    blah2 = haikuType2()\n    response.flash = T("Welcome to web2py!")\n    return dict(blah=blah,blah2=blah2)\n\ndef randomness (n):\n    # import random\n    line = ""\n    while (n > 0):\n        temp = indexmod.randint(1, n)\n        line = line + str(temp)\n        n-=temp\n    return line\n\ndef user():\n    """\n    exposes:\n    http://..../[app]/default/user/login\n    http://..../[app]/default/user/logout\n    http://..../[app]/default/user/register\n    http://..../[app]/default/user/profile\n    http://..../[app]/default/user/retrieve_password\n    http://..../[app]/default/user/change_password\n    http://..../[app]/default/user/manage_users (requires membership in\n    use @auth.requires_login()\n        @auth.requires_membership(\'group name\')\n        @auth.requires_permission(\'read\',\'table name\',record_id)\n    to decorate functions that need access control\n    """\n    return dict(form=auth())\n\n\n@cache.action()\ndef download():\n    """\n    allows downloading of uploaded files\n    http://..../[app]/default/download/[filename]\n    """\n    return response.download(request, db)\n\n\ndef call():\n    """\n    exposes services. for example:\n    http://..../[app]/default/call/jsonrpc\n    decorate with @services.jsonrpc the functions to expose\n    supports xml, json, xmlrpc, jsonrpc, amfrpc, rss, csv\n    """\n    return service()\n\n\n@auth.requires_login() \ndef api():\n    """\n    this is example of API with access control\n    WEB2PY provides Hypermedia API (Collection+JSON) Experimental\n    """\n    from gluon.contrib.hypermedia import Collection\n    rules = {\n        \'<tablename>\': {\'GET\':{},\'POST\':{},\'PUT\':{},\'DELETE\':{}},\n        }\n    return Collection(db).process(request,response,rules)\n\n\nimport os\n\n# Enter a number to get a file based on syllable count\n# EX: getNounFile(3) = gets 3 syllable noun file\n\ndef getWordFile(fileNumR, sylNumR):\n    if fileNumR == 1:\n        return getNounFile(sylNumR)\n    if fileNumR == 2:\n        return getAdjFile(sylNumR)\n    if fileNumR == 3:\n        return getVerbFile(sylNumR)\n    if fileNumR == 4:\n        return getAdverbFile(sylNumR)\n\ndef getNounFile(sylNumN):\n    return filter(None, fetchFile(1, sylNumN))\n\ndef getAdjFile(sylNumAj):\n    return filter(None, fetchFile(2, sylNumAj))\n\ndef getVerbFile(sylNumV):\n    return filter(None, fetchFile(3, sylNumV))\n\ndef getAdverbFile(sylNumAv):\n    return filter(None, fetchFile(4, sylNumAv))\n    \ndef fetchFile(fileNum, sylNum):\n    fileLines = fetchFilePath(fileNum, sylNum).read().split(\'\\r\\n\')\n    fetchFilePath(fileNum, sylNum).close\n    return fileLines    \n\ndef fetchFilePath(fileNumP, sylNumP):\n    return open(fetchFileStrPath(fileNumP, sylNumP), "r")\n\ndef fetchFileStrPath(filePathNum, sylNum):\n    basePath = os.path.dirname(os.path.abspath(__file__))\n    nounsFilePath = os.path.abspath(os.path.join(basePath, "../Project-Slojd/dict/nouns"))\n    adjFilePath = os.path.abspath(os.path.join(basePath, "../Project-Slojd/dict/adjectives"))\n    verbFilePath = os.path.abspath(os.path.join(basePath, "../Project-Slojd/dict/verbs"))\n    adverbFilePath = os.path.abspath(os.path.join(basePath, "../Project-Slojd/dict/adverbs"))\n\n    if filePathNum == 1:\n        return nounsFilePath + "/" + str(sylNum) +"syllablenouns.txt"\n\n    if filePathNum == 2:\n        return adjFilePath + "/" + str(sylNum) +"syllableadjectives.txt"\n\n    if filePathNum == 3:\n        return verbFilePath + "/" + str(sylNum) +"syllableverbs.txt"\n\n    if filePathNum == 4:\n        return adverbFilePath + "/" + str(sylNum) +"syllableadverbs.txt"\n\nimport sys\nimport glob\nimport errno\n\ndef randSylLine (max):\n    startNum = indexmod.randint(1, 4)\n    sylList = [startNum]\n    remainSyl = max - startNum\n    while (remainSyl > 0):\n        if(remainSyl > 4):\n            tempNum = indexmod.randint(1, 4)\n        else: \n            tempNum = indexmod.randint(1, remainSyl)\n        sylList.append(tempNum)\n        remainSyl-=tempNum\n    return sylList\n\n\ndef makeHaiku1():\n    # print ("\\n" + makeLine(randSylLine(5)))\n    # print (makeLine(randSylLine(7)))\n    # print (makeLine(randSylLine(5)) + "\\n")\n    # apple1=makeLine1(randSylLine(5))\n    # apple2=makeLine1(randSylLine(7))\n    # apple3=makeLine1(randSylLine(5))\n    apple = "\\n\\" " + makeLine(randSylLine(5), randFileLine (5))+ "\\n  " + makeLine(randSylLine(7), randFileLine (7)) + "\\n  " +makeLine(randSylLine(5), randFileLine (5)) + "\\"\\n"\n    return apple\n\ndef randFileLine (size):\n    fileList = []\n    count = 0\n    while (count < size):\n        tempNum = indexmod.randint(1, 4)\n        fileList.append(tempNum)\n        count+=1\n    return fileList\n\n\ndef makeLine(sylCountList, fileCountList):\n    # print ("SYL: " + str(sum(sylCountList)))\n    print ("FILE: " + str(fileCountList))\n    retLine = ""\n    for tempSy, tempFi in zip(sylCountList, fileCountList):\n        tempLines = getWordFile(tempFi, tempSy)\n        if (len(tempLines)-1 < 1):\n            print("\\n**ERROR**\\n")\n            break\n        tempLinesNum = randrange(0, len(tempLines))\n\n        retLine += tempLines[tempLinesNum] + " "\n    return retLine; \n\ndef fileLine2 (size, fileList):\n    # fileList = randFileLine(size)\n    count = 0\n    while (count < size-1):\n        if(fileList[count-1] == 1 or fileList[count + 1] == 1):\n            fileList[count] = indexmod.randint(2, 3)\n        if(fileList[count] == 4 and (fileList[count-1] != 3 or fileList[count + 1] != 3)):\n            fileList[count] = indexmod.randint(1, 3)\n        if(fileList[count-1] == 3 or fileList[count + 1] == 3):\n            fileList[count] = 4         \n        if(fileList[count-1] == 3 and fileList[count] == 3):\n            fileList[indexmod.randint(count-1, count)] = indexmod.randint(1, 2)   \n        if(fileList[count-1] == 4 and fileList[count] == 4):\n            fileList[indexmod.randint(count-1, count)] = indexmod.randint(1, 3)\n        count+=1\n    return fileList \n\ndef haikuType1():\n    sylList1 = randSylLine(5)\n    sylList2 = randSylLine(7)\n    sylList3 = randSylLine(5)\n    haikuStr = ("\\n" + makeLine(sylList1, randFileLine(len(sylList1))) + "\\n" + \n                makeLine(sylList2, randFileLine(len(sylList2))) + "\\n" + \n                makeLine(sylList3, randFileLine(len(sylList3))) + "\\n")\n    return haikuStr\n\ndef haikuType2():\n    sylList1 = randSylLine(5)\n    sylList2 = randSylLine(7)\n    sylList3 = randSylLine(5)\n    fileList1 = randFileLine(len(sylList1))\n    fileList2 = randFileLine(len(sylList2))\n    fileList3 = randFileLine(len(sylList3))\n\n    haikuStr1 = ("\\n" + makeLine(sylList1, fileList1) + "\\n" + \n                makeLine(sylList2, fileList2) + "\\n" + \n                makeLine(sylList3, fileList3) + "\\n")\n\n    haikuStr2 = ("\\n" + makeLine(sylList1, fileLine2(len(sylList1), fileList1)) + "\\n" + \n                makeLine(sylList2, fileLine2(len(sylList2), fileList2)) + "\\n" + \n                makeLine(sylList3, fileLine2(len(sylList3), fileList3)) + "\\n")\n\n    return haikuStr1 + haikuStr2\nresponse._vars=response._caller(index)\n'
p7
sS'snapshot'
p8
(dp9
S'exception'
p10
(dp11
S'__getslice__'
p12
S"<method-wrapper '__getslice__' of exceptions.IOError object>"
p13
sS'__str__'
p14
S"<method-wrapper '__str__' of exceptions.IOError object>"
p15
sS'__reduce__'
p16
S'<built-in method __reduce__ of exceptions.IOError object>'
p17
sS'__dict__'
p18
S'{}'
p19
sS'__sizeof__'
p20
S'<built-in method __sizeof__ of exceptions.IOError object>'
p21
sS'__init__'
p22
S"<method-wrapper '__init__' of exceptions.IOError object>"
p23
sS'__setattr__'
p24
S"<method-wrapper '__setattr__' of exceptions.IOError object>"
p25
sS'__reduce_ex__'
p26
S'<built-in method __reduce_ex__ of exceptions.IOError object>'
p27
sS'__new__'
p28
S'<built-in method __new__ of type object>'
p29
sS'errno'
p30
S'2'
sS'__format__'
p31
S'<built-in method __format__ of exceptions.IOError object>'
p32
sS'__class__'
p33
S"<type 'exceptions.IOError'>"
p34
sS'filename'
p35
S"'/home/andy/lib/python/web2py/applications/HaikuM...ect-Slojd/dict/adjectives/2syllableadjectives.txt'"
p36
sS'__doc__'
p37
S"'I/O operation failed.'"
p38
sS'__getitem__'
p39
S"<method-wrapper '__getitem__' of exceptions.IOError object>"
p40
sS'__setstate__'
p41
S'<built-in method __setstate__ of exceptions.IOError object>'
p42
sS'__getattribute__'
p43
S"<method-wrapper '__getattribute__' of exceptions.IOError object>"
p44
sS'args'
p45
S"(2, 'No such file or directory')"
p46
sS'__subclasshook__'
p47
S'<built-in method __subclasshook__ of type object>'
p48
sS'__unicode__'
p49
S'<built-in method __unicode__ of exceptions.IOError object>'
p50
sS'strerror'
p51
S"'No such file or directory'"
p52
sS'__delattr__'
p53
S"<method-wrapper '__delattr__' of exceptions.IOError object>"
p54
sS'__repr__'
p55
S"<method-wrapper '__repr__' of exceptions.IOError object>"
p56
sS'__hash__'
p57
S"<method-wrapper '__hash__' of exceptions.IOError object>"
p58
ssS'evalue'
p59
S"[Errno 2] No such file or directory: '/home/andy/lib/python/web2py/applications/HaikuMaker/Project-Slojd/dict/adjectives/2syllableadjectives.txt'"
p60
sS'request'
p61
cgluon.html
XML_unpickle
p62
(S'sK^\x00\x00<div><table><tr><td style="font-weight:bold;vertical-align:top;">ajax</td><td style="vertical-align:top;">:</td><td><div>False</div></td></tr><tr><td style="font-weight:bold;vertical-align:top;">application</td><td style="vertical-align:top;">:</td><td><div>HaikuMaker</div></td></tr><tr><td style="font-weight:bold;vertical-align:top;">args</td><td style="vertical-align:top;">:</td><td><div><table></table></div></td></tr><tr><td style="font-weight:bold;vertical-align:top;">cid</td><td style="vertical-align:top;">:</td><td><div>None</div></td></tr><tr><td style="font-weight:bold;vertical-align:top;">client</td><td style="vertical-align:top;">:</td><td><div>127.0.0.1</div></td></tr><tr><td style="font-weight:bold;vertical-align:top;">controller</td><td style="vertical-align:top;">:</td><td><div>default</div></td></tr><tr><td style="font-weight:bold;vertical-align:top;">cookies</td><td style="vertical-align:top;">:</td><td><div><table><tr><td style="font-weight:bold;vertical-align:top;">session_id_admin</td><td style="vertical-align:top;">:</td><td><div>127.0.0.1-5c928cfe-84ed-4724-a577-8710f2ed19b9<table><tr><td style="font-weight:bold;vertical-align:top;">comment</td><td style="vertical-align:top;">:</td><td><div></div></td></tr><tr><td style="font-weight:bold;vertical-align:top;">domain</td><td style="vertical-align:top;">:</td><td><div></div></td></tr><tr><td style="font-weight:bold;vertical-align:top;">expires</td><td style="vertical-align:top;">:</td><td><div></div></td></tr><tr><td style="font-weight:bold;vertical-align:top;">httponly</td><td style="vertical-align:top;">:</td><td><div></div></td></tr><tr><td style="font-weight:bold;vertical-align:top;">max-age</td><td style="vertical-align:top;">:</td><td><div></div></td></tr><tr><td style="font-weight:bold;vertical-align:top;">path</td><td style="vertical-align:top;">:</td><td><div></div></td></tr><tr><td style="font-weight:bold;vertical-align:top;">secure</td><td style="vertical-align:top;">:</td><td><div></div></td></tr><tr><td style="font-weight:bold;vertical-align:top;">version</td><td style="vertical-align:top;">:</td><td><div></div></td></tr></table></div></td></tr><tr><td style="font-weight:bold;vertical-align:top;">session_id_haikumaker</td><td style="vertical-align:top;">:</td><td><div>127.0.0.1-dd0d09cf-87de-4721-b9d2-17d57b1d711f<table><tr><td style="font-weight:bold;vertical-align:top;">comment</td><td style="vertical-align:top;">:</td><td><div></div></td></tr><tr><td style="font-weight:bold;vertical-align:top;">domain</td><td style="vertical-align:top;">:</td><td><div></div></td></tr><tr><td style="font-weight:bold;vertical-align:top;">expires</td><td style="vertical-align:top;">:</td><td><div></div></td></tr><tr><td style="font-weight:bold;vertical-align:top;">httponly</td><td style="vertical-align:top;">:</td><td><div></div></td></tr><tr><td style="font-weight:bold;vertical-align:top;">max-age</td><td style="vertical-align:top;">:</td><td><div></div></td></tr><tr><td style="font-weight:bold;vertical-align:top;">path</td><td style="vertical-align:top;">:</td><td><div></div></td></tr><tr><td style="font-weight:bold;vertical-align:top;">secure</td><td style="vertical-align:top;">:</td><td><div></div></td></tr><tr><td style="font-weight:bold;vertical-align:top;">version</td><td style="vertical-align:top;">:</td><td><div></div></td></tr></table></div></td></tr><tr><td style="font-weight:bold;vertical-align:top;">session_id_welcome</td><td style="vertical-align:top;">:</td><td><div>127.0.0.1-584f70e7-f47c-4036-b1f0-ed87d55ed897<table><tr><td style="font-weight:bold;vertical-align:top;">comment</td><td style="vertical-align:top;">:</td><td><div></div></td></tr><tr><td style="font-weight:bold;vertical-align:top;">domain</td><td style="vertical-align:top;">:</td><td><div></div></td></tr><tr><td style="font-weight:bold;vertical-align:top;">expires</td><td style="vertical-align:top;">:</td><td><div></div></td></tr><tr><td style="font-weight:bold;vertical-align:top;">httponly</td><td style="vertical-align:top;">:</td><td><div></div></td></tr><tr><td style="font-weight:bold;vertical-align:top;">max-age</td><td style="vertical-align:top;">:</td><td><div></div></td></tr><tr><td style="font-weight:bold;vertical-align:top;">path</td><td style="vertical-align:top;">:</td><td><div></div></td></tr><tr><td style="font-weight:bold;vertical-align:top;">secure</td><td style="vertical-align:top;">:</td><td><div></div></td></tr><tr><td style="font-weight:bold;vertical-align:top;">version</td><td style="vertical-align:top;">:</td><td><div></div></td></tr></table></div></td></tr></table></div></td></tr><tr><td style="font-weight:bold;vertical-align:top;">env</td><td style="vertical-align:top;">:</td><td><div><table><tr><td style="font-weight:bold;vertical-align:top;">HTTP_ACCEPT</td><td style="vertical-align:top;">:</td><td><div>text/html,application/xhtml+xml,application/xml;q=0.9,image/webp,*/*;q=0.8</div></td></tr><tr><td style="font-weight:bold;vertical-align:top;">HTTP_ACCEPT_ENCODING</td><td style="vertical-align:top;">:</td><td><div>gzip,deflate,sdch</div></td></tr><tr><td style="font-weight:bold;vertical-align:top;">HTTP_ACCEPT_LANGUAGE</td><td style="vertical-align:top;">:</td><td><div>en-US,en;q=0.8</div></td></tr><tr><td style="font-weight:bold;vertical-align:top;">HTTP_CACHE_CONTROL</td><td style="vertical-align:top;">:</td><td><div>max-age=0</div></td></tr><tr><td style="font-weight:bold;vertical-align:top;">HTTP_CONNECTION</td><td style="vertical-align:top;">:</td><td><div>keep-alive</div></td></tr><tr><td style="font-weight:bold;vertical-align:top;">HTTP_COOKIE</td><td style="vertical-align:top;">:</td><td><div>session_id_welcome=127.0.0.1-584f70e7-f47c-4036-b1f0-ed87d55ed897; session_id_haikumaker=127.0.0.1-dd0d09cf-87de-4721-b9d2-17d57b1d711f; session_id_admin=127.0.0.1-5c928cfe-84ed-4724-a577-8710f2ed19b9</div></td></tr><tr><td style="font-weight:bold;vertical-align:top;">HTTP_DNT</td><td style="vertical-align:top;">:</td><td><div>1</div></td></tr><tr><td style="font-weight:bold;vertical-align:top;">HTTP_HOST</td><td style="vertical-align:top;">:</td><td><div>127.0.0.1:8000</div></td></tr><tr><td style="font-weight:bold;vertical-align:top;">HTTP_REFERER</td><td style="vertical-align:top;">:</td><td><div>http://127.0.0.1:8000/admin/default/site</div></td></tr><tr><td style="font-weight:bold;vertical-align:top;">HTTP_USER_AGENT</td><td style="vertical-align:top;">:</td><td><div>Mozilla/5.0 (X11; Linux x86_64) AppleWebKit/537.36 (KHTML, like Gecko) Ubuntu Chromium/37.0.2062.120 Chrome/37.0.2062.120 Safari/537.36</div></td></tr><tr><td style="font-weight:bold;vertical-align:top;">PATH_INFO</td><td style="vertical-align:top;">:</td><td><div>/HaikuMaker/default/index</div></td></tr><tr><td style="font-weight:bold;vertical-align:top;">QUERY_STRING</td><td style="vertical-align:top;">:</td><td><div></div></td></tr><tr><td style="font-weight:bold;vertical-align:top;">REMOTE_ADDR</td><td style="vertical-align:top;">:</td><td><div>127.0.0.1</div></td></tr><tr><td style="font-weight:bold;vertical-align:top;">REMOTE_PORT</td><td style="vertical-align:top;">:</td><td><div>50765</div></td></tr><tr><td style="font-weight:bold;vertical-align:top;">REQUEST_METHOD</td><td style="vertical-align:top;">:</td><td><div>GET</div></td></tr><tr><td style="font-weight:bold;vertical-align:top;">SCRIPT_NAME</td><td style="vertical-align:top;">:</td><td><div></div></td></tr><tr><td style="font-weight:bold;vertical-align:top;">SERVER_NAME</td><td style="vertical-align:top;">:</td><td><div>andy-HP-ENVY-14-Notebook-PC</div></td></tr><tr><td style="font-weight:bold;vertical-align:top;">SERVER_PORT</td><td style="vertical-align:top;">:</td><td><div>8000</div></td></tr><tr><td style="font-weight:bold;vertical-align:top;">SERVER_PROTOCOL</td><td style="vertical-align:top;">:</td><td><div>HTTP/1.1</div></td></tr><tr><td style="font-weight:bold;vertical-align:top;">SERVER_SOFTWARE</td><td style="vertical-align:top;">:</td><td><div>Rocket 1.2.6</div></td></tr><tr><td style="font-weight:bold;vertical-align:top;">app_folders</td><td style="vertical-align:top;">:</td><td><div>set([&#x27;/home/andy/lib/python/web2py/applications/welcome/&#x27;, &#x27;/home/andy/lib/python/web2py/applications/admin/&#x27;, &#x27;/home/andy/lib/python/web2py/applications/HaikuMaker/&#x27;])</div></td></tr><tr><td style="font-weight:bold;vertical-align:top;">applications_parent</td><td style="vertical-align:top;">:</td><td><div>/home/andy/lib/python/web2py</div></td></tr><tr><td style="font-weight:bold;vertical-align:top;">cmd_args</td><td style="vertical-align:top;">:</td><td><div><table></table></div></td></tr><tr><td style="font-weight:bold;vertical-align:top;">cmd_options</td><td style="vertical-align:top;">:</td><td><div>&lt;Values at 0x28755f0: {&#x27;verbose&#x27;: False, &#x27;ip&#x27;: &#x27;127.0.0.1&#x27;, &#x27;debuglevel&#x27;: 30, &#x27;with_scheduler&#x27;: False, &#x27;ips&#x27;: [&#x27;127.0.1.1&#x27;], &#x27;shutdown_timeout&#x27;: 5, &#x27;taskbar&#x27;: False, &#x27;with_coverage&#x27;: False, &#x27;scheduler_groups&#x27;: None, &#x27;port&#x27;: 8000, &#x27;maxthreads&#x27;: None, &#x27;softcron&#x27;: False, &#x27;server_name&#x27;: &#x27;andy-HP-ENVY-14-Notebook-PC&#x27;, &#x27;bpython&#x27;: False, &#x27;nogui&#x27;: False, &#x27;pid_filename&#x27;: &#x27;httpserver.pid&#x27;, &#x27;extcron&#x27;: False, &#x27;runcron&#x27;: False, &#x27;run_system_tests&#x27;: False, &#x27;test&#x27;: None, &#x27;folder&#x27;: &#x27;/home/andy/lib/python/web2py&#x27;, &#x27;config&#x27;: &#x27;&#x27;, &#x27;minthreads&#x27;: None, &#x27;shell&#x27;: None, &#x27;run&#x27;: &#x27;&#x27;, &#x27;log_filename&#x27;: &#x27;httpserver.log&#x27;, &#x27;profiler_dir&#x27;: None, &#x27;args&#x27;: [&#x27;&#x27;], &#x27;socket_timeout&#x27;: 5, &#x27;ssl_ca_certificate&#x27;: None, &#x27;scheduler&#x27;: None, &#x27;interfaces&#x27;: None, &#x27;ssl_private_key&#x27;: &#x27;&#x27;, &#x27;gae&#x27;: None, &#x27;password&#x27;: &#x27;&lt;ask&gt;&#x27;, &#x27;request_queue_size&#x27;: 5, &#x27;ssl_certificate&#x27;: &#x27;&#x27;, &#x27;cronjob&#x27;: False, &#x27;numthreads&#x27;: None, &#x27;quiet&#x27;: False, &#x27;import_models&#x27;: False, &#x27;timeout&#x27;: 10, &#x27;plain&#x27;: False, &#x27;nobanner&#x27;: False}&gt;</div></td></tr><tr><td style="font-weight:bold;vertical-align:top;">db_sessions</td><td style="vertical-align:top;">:</td><td><div>set([])</div></td></tr><tr><td style="font-weight:bold;vertical-align:top;">debugging</td><td style="vertical-align:top;">:</td><td><div>False</div></td></tr><tr><td style="font-weight:bold;vertical-align:top;">gluon_parent</td><td style="vertical-align:top;">:</td><td><div>/home/andy/lib/python/web2py</div></td></tr><tr><td style="font-weight:bold;vertical-align:top;">http_accept</td><td style="vertical-align:top;">:</td><td><div>text/html,application/xhtml+xml,application/xml;q=0.9,image/webp,*/*;q=0.8</div></td></tr><tr><td style="font-weight:bold;vertical-align:top;">http_accept_encoding</td><td style="vertical-align:top;">:</td><td><div>gzip,deflate,sdch</div></td></tr><tr><td style="font-weight:bold;vertical-align:top;">http_accept_language</td><td style="vertical-align:top;">:</td><td><div>en-US,en;q=0.8</div></td></tr><tr><td style="font-weight:bold;vertical-align:top;">http_cache_control</td><td style="vertical-align:top;">:</td><td><div>max-age=0</div></td></tr><tr><td style="font-weight:bold;vertical-align:top;">http_connection</td><td style="vertical-align:top;">:</td><td><div>keep-alive</div></td></tr><tr><td style="font-weight:bold;vertical-align:top;">http_cookie</td><td style="vertical-align:top;">:</td><td><div>session_id_welcome=127.0.0.1-584f70e7-f47c-4036-b1f0-ed87d55ed897; session_id_haikumaker=127.0.0.1-dd0d09cf-87de-4721-b9d2-17d57b1d711f; session_id_admin=127.0.0.1-5c928cfe-84ed-4724-a577-8710f2ed19b9</div></td></tr><tr><td style="font-weight:bold;vertical-align:top;">http_dnt</td><td style="vertical-align:top;">:</td><td><div>1</div></td></tr><tr><td style="font-weight:bold;vertical-align:top;">http_host</td><td style="vertical-align:top;">:</td><td><div>127.0.0.1:8000</div></td></tr><tr><td style="font-weight:bold;vertical-align:top;">http_referer</td><td style="vertical-align:top;">:</td><td><div>http://127.0.0.1:8000/admin/default/site</div></td></tr><tr><td style="font-weight:bold;vertical-align:top;">http_user_agent</td><td style="vertical-align:top;">:</td><td><div>Mozilla/5.0 (X11; Linux x86_64) AppleWebKit/537.36 (KHTML, like Gecko) Ubuntu Chromium/37.0.2062.120 Chrome/37.0.2062.120 Safari/537.36</div></td></tr><tr><td style="font-weight:bold;vertical-align:top;">is_jython</td><td style="vertical-align:top;">:</td><td><div>False</div></td></tr><tr><td style="font-weight:bold;vertical-align:top;">is_pypy</td><td style="vertical-align:top;">:</td><td><div>False</div></td></tr><tr><td style="font-weight:bold;vertical-align:top;">is_source</td><td style="vertical-align:top;">:</td><td><div>True</div></td></tr><tr><td style="font-weight:bold;vertical-align:top;">local_hosts</td><td style="vertical-align:top;">:</td><td><div><table><tr><td><div>::1</div></td></tr><tr><td><div>127.0.1.1</div></td></tr><tr><td><div>::ffff:127.0.0.1</div></td></tr><tr><td><div>127.0.0.1</div></td></tr><tr><td><div>andy-HP-ENVY-14-Notebook-PC</div></td></tr></table></div></td></tr><tr><td style="font-weight:bold;vertical-align:top;">path_info</td><td style="vertical-align:top;">:</td><td><div>/HaikuMaker/default/index</div></td></tr><tr><td style="font-weight:bold;vertical-align:top;">query_string</td><td style="vertical-align:top;">:</td><td><div></div></td></tr><tr><td style="font-weight:bold;vertical-align:top;">remote_addr</td><td style="vertical-align:top;">:</td><td><div>127.0.0.1</div></td></tr><tr><td style="font-weight:bold;vertical-align:top;">remote_port</td><td style="vertical-align:top;">:</td><td><div>50765</div></td></tr><tr><td style="font-weight:bold;vertical-align:top;">request_method</td><td style="vertical-align:top;">:</td><td><div>GET</div></td></tr><tr><td style="font-weight:bold;vertical-align:top;">request_uri</td><td style="vertical-align:top;">:</td><td><div>/HaikuMaker/default/index</div></td></tr><tr><td style="font-weight:bold;vertical-align:top;">script_name</td><td style="vertical-align:top;">:</td><td><div></div></td></tr><tr><td style="font-weight:bold;vertical-align:top;">server_name</td><td style="vertical-align:top;">:</td><td><div>andy-HP-ENVY-14-Notebook-PC</div></td></tr><tr><td style="font-weight:bold;vertical-align:top;">server_port</td><td style="vertical-align:top;">:</td><td><div>8000</div></td></tr><tr><td style="font-weight:bold;vertical-align:top;">server_protocol</td><td style="vertical-align:top;">:</td><td><div>HTTP/1.1</div></td></tr><tr><td style="font-weight:bold;vertical-align:top;">server_software</td><td style="vertical-align:top;">:</td><td><div>Rocket 1.2.6</div></td></tr><tr><td style="font-weight:bold;vertical-align:top;">web2py_path</td><td style="vertical-align:top;">:</td><td><div>/home/andy/lib/python/web2py</div></td></tr><tr><td style="font-weight:bold;vertical-align:top;">web2py_version</td><td style="vertical-align:top;">:</td><td><div>2.9.12-stable+timestamp.2015.01.17.06.11.03</div></td></tr><tr><td style="font-weight:bold;vertical-align:top;">wsgi.errors</td><td style="vertical-align:top;">:</td><td><div>&lt;open file &#x27;&lt;stderr&gt;&#x27;, mode &#x27;w&#x27; at 0x7ff413c12270&gt;</div></td></tr><tr><td style="font-weight:bold;vertical-align:top;">wsgi.file_wrapper</td><td style="vertical-align:top;">:</td><td><div>&lt;class wsgiref.util.FileWrapper at 0x27e88d8&gt;</div></td></tr><tr><td style="font-weight:bold;vertical-align:top;">wsgi.input</td><td style="vertical-align:top;">:</td><td><div>&lt;socket._fileobject object at 0x7ff400480a50&gt;</div></td></tr><tr><td style="font-weight:bold;vertical-align:top;">wsgi.multiprocess</td><td style="vertical-align:top;">:</td><td><div>False</div></td></tr><tr><td style="font-weight:bold;vertical-align:top;">wsgi.multithread</td><td style="vertical-align:top;">:</td><td><div>True</div></td></tr><tr><td style="font-weight:bold;vertical-align:top;">wsgi.run_once</td><td style="vertical-align:top;">:</td><td><div>False</div></td></tr><tr><td style="font-weight:bold;vertical-align:top;">wsgi.url_scheme</td><td style="vertical-align:top;">:</td><td><div>http</div></td></tr><tr><td style="font-weight:bold;vertical-align:top;">wsgi.version</td><td style="vertical-align:top;">:</td><td><div><table><tr><td><div>1</div></td></tr><tr><td><div>0</div></td></tr></table></div></td></tr><tr><td style="font-weight:bold;vertical-align:top;">wsgi_errors</td><td style="vertical-align:top;">:</td><td><div>&lt;open file &#x27;&lt;stderr&gt;&#x27;, mode &#x27;w&#x27; at 0x7ff413c12270&gt;</div></td></tr><tr><td style="font-weight:bold;vertical-align:top;">wsgi_file_wrapper</td><td style="vertical-align:top;">:</td><td><div>&lt;class wsgiref.util.FileWrapper at 0x27e88d8&gt;</div></td></tr><tr><td style="font-weight:bold;vertical-align:top;">wsgi_input</td><td style="vertical-align:top;">:</td><td><div>&lt;socket._fileobject object at 0x7ff400480a50&gt;</div></td></tr><tr><td style="font-weight:bold;vertical-align:top;">wsgi_multiprocess</td><td style="vertical-align:top;">:</td><td><div>False</div></td></tr><tr><td style="font-weight:bold;vertical-align:top;">wsgi_multithread</td><td style="vertical-align:top;">:</td><td><div>True</div></td></tr><tr><td style="font-weight:bold;vertical-align:top;">wsgi_run_once</td><td style="vertical-align:top;">:</td><td><div>False</div></td></tr><tr><td style="font-weight:bold;vertical-align:top;">wsgi_url_scheme</td><td style="vertical-align:top;">:</td><td><div>http</div></td></tr><tr><td style="font-weight:bold;vertical-align:top;">wsgi_version</td><td style="vertical-align:top;">:</td><td><div><table><tr><td><div>1</div></td></tr><tr><td><div>0</div></td></tr></table></div></td></tr></table></div></td></tr><tr><td style="font-weight:bold;vertical-align:top;">extension</td><td style="vertical-align:top;">:</td><td><div>html</div></td></tr><tr><td style="font-weight:bold;vertical-align:top;">folder</td><td style="vertical-align:top;">:</td><td><div>/home/andy/lib/python/web2py/applications/HaikuMaker/</div></td></tr><tr><td style="font-weight:bold;vertical-align:top;">function</td><td style="vertical-align:top;">:</td><td><div>index</div></td></tr><tr><td style="font-weight:bold;vertical-align:top;">global_settings</td><td style="vertical-align:top;">:</td><td><div><table><tr><td style="font-weight:bold;vertical-align:top;">app_folders</td><td style="vertical-align:top;">:</td><td><div>set([&#x27;/home/andy/lib/python/web2py/applications/welcome/&#x27;, &#x27;/home/andy/lib/python/web2py/applications/admin/&#x27;, &#x27;/home/andy/lib/python/web2py/applications/HaikuMaker/&#x27;])</div></td></tr><tr><td style="font-weight:bold;vertical-align:top;">applications_parent</td><td style="vertical-align:top;">:</td><td><div>/home/andy/lib/python/web2py</div></td></tr><tr><td style="font-weight:bold;vertical-align:top;">cmd_args</td><td style="vertical-align:top;">:</td><td><div><table></table></div></td></tr><tr><td style="font-weight:bold;vertical-align:top;">cmd_options</td><td style="vertical-align:top;">:</td><td><div>&lt;Values at 0x28755f0: {&#x27;verbose&#x27;: False, &#x27;ip&#x27;: &#x27;127.0.0.1&#x27;, &#x27;debuglevel&#x27;: 30, &#x27;with_scheduler&#x27;: False, &#x27;ips&#x27;: [&#x27;127.0.1.1&#x27;], &#x27;shutdown_timeout&#x27;: 5, &#x27;taskbar&#x27;: False, &#x27;with_coverage&#x27;: False, &#x27;scheduler_groups&#x27;: None, &#x27;port&#x27;: 8000, &#x27;maxthreads&#x27;: None, &#x27;softcron&#x27;: False, &#x27;server_name&#x27;: &#x27;andy-HP-ENVY-14-Notebook-PC&#x27;, &#x27;bpython&#x27;: False, &#x27;nogui&#x27;: False, &#x27;pid_filename&#x27;: &#x27;httpserver.pid&#x27;, &#x27;extcron&#x27;: False, &#x27;runcron&#x27;: False, &#x27;run_system_tests&#x27;: False, &#x27;test&#x27;: None, &#x27;folder&#x27;: &#x27;/home/andy/lib/python/web2py&#x27;, &#x27;config&#x27;: &#x27;&#x27;, &#x27;minthreads&#x27;: None, &#x27;shell&#x27;: None, &#x27;run&#x27;: &#x27;&#x27;, &#x27;log_filename&#x27;: &#x27;httpserver.log&#x27;, &#x27;profiler_dir&#x27;: None, &#x27;args&#x27;: [&#x27;&#x27;], &#x27;socket_timeout&#x27;: 5, &#x27;ssl_ca_certificate&#x27;: None, &#x27;scheduler&#x27;: None, &#x27;interfaces&#x27;: None, &#x27;ssl_private_key&#x27;: &#x27;&#x27;, &#x27;gae&#x27;: None, &#x27;password&#x27;: &#x27;&lt;ask&gt;&#x27;, &#x27;request_queue_size&#x27;: 5, &#x27;ssl_certificate&#x27;: &#x27;&#x27;, &#x27;cronjob&#x27;: False, &#x27;numthreads&#x27;: None, &#x27;quiet&#x27;: False, &#x27;import_models&#x27;: False, &#x27;timeout&#x27;: 10, &#x27;plain&#x27;: False, &#x27;nobanner&#x27;: False}&gt;</div></td></tr><tr><td style="font-weight:bold;vertical-align:top;">db_sessions</td><td style="vertical-align:top;">:</td><td><div>set([])</div></td></tr><tr><td style="font-weight:bold;vertical-align:top;">debugging</td><td style="vertical-align:top;">:</td><td><div>False</div></td></tr><tr><td style="font-weight:bold;vertical-align:top;">gluon_parent</td><td style="vertical-align:top;">:</td><td><div>/home/andy/lib/python/web2py</div></td></tr><tr><td style="font-weight:bold;vertical-align:top;">is_jython</td><td style="vertical-align:top;">:</td><td><div>False</div></td></tr><tr><td style="font-weight:bold;vertical-align:top;">is_pypy</td><td style="vertical-align:top;">:</td><td><div>False</div></td></tr><tr><td style="font-weight:bold;vertical-align:top;">is_source</td><td style="vertical-align:top;">:</td><td><div>True</div></td></tr><tr><td style="font-weight:bold;vertical-align:top;">local_hosts</td><td style="vertical-align:top;">:</td><td><div><table><tr><td><div>::1</div></td></tr><tr><td><div>127.0.1.1</div></td></tr><tr><td><div>::ffff:127.0.0.1</div></td></tr><tr><td><div>127.0.0.1</div></td></tr><tr><td><div>andy-HP-ENVY-14-Notebook-PC</div></td></tr></table></div></td></tr><tr><td style="font-weight:bold;vertical-align:top;">web2py_version</td><td style="vertical-align:top;">:</td><td><div>2.9.12-stable+timestamp.2015.01.17.06.11.03</div></td></tr></table></div></td></tr><tr><td style="font-weight:bold;vertical-align:top;">is_https</td><td style="vertical-align:top;">:</td><td><div>False</div></td></tr><tr><td style="font-weight:bold;vertical-align:top;">is_local</td><td style="vertical-align:top;">:</td><td><div>True</div></td></tr><tr><td style="font-weight:bold;vertical-align:top;">is_restful</td><td style="vertical-align:top;">:</td><td><div>False</div></td></tr><tr><td style="font-weight:bold;vertical-align:top;">is_sheduler</td><td style="vertical-align:top;">:</td><td><div>None</div></td></tr><tr><td style="font-weight:bold;vertical-align:top;">is_shell</td><td style="vertical-align:top;">:</td><td><div>None</div></td></tr><tr><td style="font-weight:bold;vertical-align:top;">now</td><td style="vertical-align:top;">:</td><td><div>datetime.datetime(2015, 3, 8, 12, 53, 55, 677727)</div></td></tr><tr><td style="font-weight:bold;vertical-align:top;">raw_args</td><td style="vertical-align:top;">:</td><td><div></div></td></tr><tr><td style="font-weight:bold;vertical-align:top;">raw_extension</td><td style="vertical-align:top;">:</td><td><div>None</div></td></tr><tr><td style="font-weight:bold;vertical-align:top;">url</td><td style="vertical-align:top;">:</td><td><div>/HaikuMaker/default/index</div></td></tr><tr><td style="font-weight:bold;vertical-align:top;">utcnow</td><td style="vertical-align:top;">:</td><td><div>datetime.datetime(2015, 3, 8, 19, 53, 55, 677744)</div></td></tr><tr><td style="font-weight:bold;vertical-align:top;">uuid</td><td style="vertical-align:top;">:</td><td><div>HaikuMaker/127.0.0.1.2015-03-08.12-53-55.aaef26cb-5ba8-4f76-a1c0-6e73238c2049</div></td></tr><tr><td style="font-weight:bold;vertical-align:top;">wsgi</td><td style="vertical-align:top;">:</td><td><div>&lt;gluon.main.LazyWSGI object at 0x7ff3f436a050&gt;</div></td></tr></table></div>'
tRp63
sS'frames'
p64
(lp65
(dp66
S'file'
p67
S'/home/andy/lib/python/web2py/gluon/restricted.py'
p68
sS'dump'
p69
(dp70
S'environment'
p71
S"{'A': <class 'gluon.html.A'>, 'ANY_OF': <class 'gluon.validators.ANY_OF'>, 'ASSIGNJS': <function ASSIGNJS>, 'Auth': <class 'gluon.tools.Auth'>, 'B': <class 'gluon.html.B'>, 'BEAUTIFY': <class 'gluon.html.BEAUTIFY'>, 'BODY': <class 'gluon.html.BODY'>, 'BR': <class 'gluon.html.BR'>, 'BUTTON': <class 'gluon.html.BUTTON'>, 'CAT': <class 'gluon.html.CAT'>, ...}"
p72
sS'ccode'
p73
S'<code object <module> at 0x7ff3d034ec30, file "/...ions/HaikuMaker/controllers/default.py", line 11>'
p74
ssS'lnum'
p75
I224
sS'lines'
p76
(dp77
I224
S'        exec ccode in environment'
p78
sI225
S'    except HTTP:'
p79
sI226
S'        raise'
p80
sI227
S'    except RestrictedError:'
p81
sI228
S'        # do not encapsulate (obfuscate) the original RestrictedError'
p82
sI219
S'    try:'
p83
sI220
S'        if isinstance(code, types.CodeType):'
p84
sI221
S'            ccode = code'
p85
sI222
S'        else:'
p86
sI223
S'            ccode = compile2(code, layer)'
p87
ssS'call'
p88
S"(code='# -*- coding: utf-8 -*-\\n# this file is released ...haikuStr2\\nresponse._vars=response._caller(index)\\n', environment={'A': <class 'gluon.html.A'>, 'ANY_OF': <class 'gluon.validators.ANY_OF'>, 'ASSIGNJS': <function ASSIGNJS>, 'Auth': <class 'gluon.tools.Auth'>, 'B': <class 'gluon.html.B'>, 'BEAUTIFY': <class 'gluon.html.BEAUTIFY'>, 'BODY': <class 'gluon.html.BODY'>, 'BR': <class 'gluon.html.BR'>, 'BUTTON': <class 'gluon.html.BUTTON'>, 'CAT': <class 'gluon.html.CAT'>, ...}, layer='/home/andy/lib/python/web2py/applications/HaikuMaker/controllers/default.py')"
p89
sS'func'
p90
S'restricted'
p91
sa(dp92
g67
S'/home/andy/lib/python/web2py/applications/HaikuMaker/controllers/default.py'
p93
sg69
(dp94
sg75
I226
sg76
(dp95
I224
S''
sI225
S'    return haikuStr1 + haikuStr2'
p96
sI216
S''
sI217
S'    haikuStr1 = ("\\n" + makeLine(sylList1, fileList1) + "\\n" +'
p97
sI218
S'                makeLine(sylList2, fileList2) + "\\n" +'
p98
sI219
S'                makeLine(sylList3, fileList3) + "\\n")'
p99
sI220
S''
sI221
S'    haikuStr2 = ("\\n" + makeLine(sylList1, fileLine2(len(sylList1), fileList1)) + "\\n" +'
p100
sI222
S'                makeLine(sylList2, fileLine2(len(sylList2), fileList2)) + "\\n" +'
p101
sI223
S'                makeLine(sylList3, fileLine2(len(sylList3), fileList3)) + "\\n")'
p102
ssg88
S'()'
p103
sg90
S'<module>'
p104
sa(dp105
g67
S'/home/andy/lib/python/web2py/gluon/globals.py'
p106
sg69
(dp107
S'self'
p108
S'undefined'
p109
sS'f'
S'<function index>'
p110
ssg75
I393
sg76
(dp111
I388
S"        self.flash = ''            # used by the default view layout"
p112
sI389
S'        self.meta = Storage()      # used by web2py_ajax.html'
p113
sI390
S'        self.menu = []             # used by the default view layout'
p114
sI391
S'        self.files = []            # used by web2py_ajax.html'
p115
sI392
S'        self._vars = None'
p116
sI393
S'        self._caller = lambda f: f()'
p117
sI394
S'        self._view_environment = None'
p118
sI395
S'        self._custom_commit = None'
p119
sI396
S'        self._custom_rollback = None'
p120
sI397
S"        self.generic_patterns = ['*']"
p121
ssg88
S'(f=<function index>)'
p122
sg90
S'<lambda>'
p123
sa(dp124
g67
S'/home/andy/lib/python/web2py/applications/HaikuMaker/controllers/default.py'
p125
sg69
(dp126
S'blah2'
p127
g109
sS'global haikuType2'
p128
S'<function haikuType2>'
p129
ssg75
I14
sg76
(dp130
I9
S'## - api is an example of Hypermedia API support and access control'
p131
sI10
S'#########################################################################'
p132
sI11
S'import indexmod'
p133
sI12
S'def index():'
p134
sI13
S'    blah = randomness(5)'
p135
sI14
S'    blah2 = haikuType2()'
p136
sI15
S'    response.flash = T("Welcome to web2py!")'
p137
sI16
S'    return dict(blah=blah,blah2=blah2)'
p138
sI17
S''
sI18
S'def randomness (n):'
p139
ssg88
S'()'
p140
sg90
S'index'
p141
sa(dp142
g67
S'/home/andy/lib/python/web2py/applications/HaikuMaker/controllers/default.py'
p143
sg69
(dp144
S'global makeLine'
p145
S'<function makeLine>'
p146
sS'fileList3'
p147
S'[3, 1, 3]'
p148
sS'sylList3'
p149
S'[3, 1, 1]'
p150
ssg75
I219
sg76
(dp151
I214
S'    fileList2 = randFileLine(len(sylList2))'
p152
sI215
S'    fileList3 = randFileLine(len(sylList3))'
p153
sI216
S''
sI217
S'    haikuStr1 = ("\\n" + makeLine(sylList1, fileList1) + "\\n" +'
p154
sI218
S'                makeLine(sylList2, fileList2) + "\\n" +'
p155
sI219
S'                makeLine(sylList3, fileList3) + "\\n")'
p156
sI220
S''
sI221
S'    haikuStr2 = ("\\n" + makeLine(sylList1, fileLine2(len(sylList1), fileList1)) + "\\n" +'
p157
sI222
S'                makeLine(sylList2, fileLine2(len(sylList2), fileList2)) + "\\n" +'
p158
sI223
S'                makeLine(sylList3, fileLine2(len(sylList3), fileList3)) + "\\n")'
p159
ssg88
S'()'
p160
sg90
S'haikuType2'
p161
sa(dp162
g67
S'/home/andy/lib/python/web2py/applications/HaikuMaker/controllers/default.py'
p163
sg69
(dp164
S'tempSy'
p165
S'2'
sS'global getWordFile'
p166
S'<function getWordFile>'
p167
sS'tempLines'
p168
g109
sS'tempFi'
p169
S'2'
ssg75
I174
sg76
(dp170
I169
S'def makeLine(sylCountList, fileCountList):'
p171
sI170
S'    # print ("SYL: " + str(sum(sylCountList)))'
p172
sI171
S'    print ("FILE: " + str(fileCountList))'
p173
sI172
S'    retLine = ""'
p174
sI173
S'    for tempSy, tempFi in zip(sylCountList, fileCountList):'
p175
sI174
S'        tempLines = getWordFile(tempFi, tempSy)'
p176
sI175
S'        if (len(tempLines)-1 < 1):'
p177
sI176
S'            print("\\n**ERROR**\\n")'
p178
sI177
S'            break'
p179
sI178
S'        tempLinesNum = randrange(0, len(tempLines))'
p180
ssg88
S'(sylCountList=[2, 3], fileCountList=[2, 3])'
p181
sg90
S'makeLine'
p182
sa(dp183
g67
S'/home/andy/lib/python/web2py/applications/HaikuMaker/controllers/default.py'
p184
sg69
(dp185
S'sylNumR'
p186
S'2'
sS'global getAdjFile'
p187
S'<function getAdjFile>'
p188
ssg75
I86
sg76
(dp189
I81
S''
sI82
S'def getWordFile(fileNumR, sylNumR):'
p190
sI83
S'    if fileNumR == 1:'
p191
sI84
S'        return getNounFile(sylNumR)'
p192
sI85
S'    if fileNumR == 2:'
p193
sI86
S'        return getAdjFile(sylNumR)'
p194
sI87
S'    if fileNumR == 3:'
p195
sI88
S'        return getVerbFile(sylNumR)'
p196
sI89
S'    if fileNumR == 4:'
p197
sI90
S'        return getAdverbFile(sylNumR)'
p198
ssg88
S'(fileNumR=2, sylNumR=2)'
p199
sg90
S'getWordFile'
p200
sa(dp201
g67
S'/home/andy/lib/python/web2py/applications/HaikuMaker/controllers/default.py'
p202
sg69
(dp203
S'builtinNone'
p204
S'None'
p205
sS'sylNumAj'
p206
S'2'
sS'builtinfilter'
p207
S'<built-in function filter>'
p208
sS'global fetchFile'
p209
S'<function fetchFile>'
p210
ssg75
I96
sg76
(dp211
I96
S'    return filter(None, fetchFile(2, sylNumAj))'
p212
sI97
S''
sI98
S'def getVerbFile(sylNumV):'
p213
sI99
S'    return filter(None, fetchFile(3, sylNumV))'
p214
sI100
S''
sI91
S''
sI92
S'def getNounFile(sylNumN):'
p215
sI93
S'    return filter(None, fetchFile(1, sylNumN))'
p216
sI94
S''
sI95
S'def getAdjFile(sylNumAj):'
p217
ssg88
S'(sylNumAj=2)'
p218
sg90
S'getAdjFile'
p219
sa(dp220
g67
S'/home/andy/lib/python/web2py/applications/HaikuMaker/controllers/default.py'
p221
sg69
(dp222
S'sylNum'
p223
S'2'
sS').read'
p224
g109
sS'global fetchFilePath'
p225
S'<function fetchFilePath>'
p226
sS'fileLines'
p227
g109
sS'fileNum'
p228
S'2'
ssg75
I105
sg76
(dp229
I100
S''
sI101
S'def getAdverbFile(sylNumAv):'
p230
sI102
S'    return filter(None, fetchFile(4, sylNumAv))'
p231
sI103
S''
sI104
S'def fetchFile(fileNum, sylNum):'
p232
sI105
S"    fileLines = fetchFilePath(fileNum, sylNum).read().split('\\r\\n')"
p233
sI106
S'    fetchFilePath(fileNum, sylNum).close'
p234
sI107
S'    return fileLines'
p235
sI108
S''
sI109
S'def fetchFilePath(fileNumP, sylNumP):'
p236
ssg88
S'(fileNum=2, sylNum=2)'
p237
sg90
S'fetchFile'
p238
sa(dp239
g67
S'/home/andy/lib/python/web2py/applications/HaikuMaker/controllers/default.py'
p240
sg69
(dp241
S'builtinopen'
p242
S'<built-in function open>'
p243
sS'sylNumP'
p244
S'2'
sS'global fetchFileStrPath'
p245
S'<function fetchFileStrPath>'
p246
sS'fileNumP'
p247
S'2'
ssg75
I110
sg76
(dp248
I105
S"    fileLines = fetchFilePath(fileNum, sylNum).read().split('\\r\\n')"
p249
sI106
S'    fetchFilePath(fileNum, sylNum).close'
p250
sI107
S'    return fileLines'
p251
sI108
S''
sI109
S'def fetchFilePath(fileNumP, sylNumP):'
p252
sI110
S'    return open(fetchFileStrPath(fileNumP, sylNumP), "r")'
p253
sI111
S''
sI112
S'def fetchFileStrPath(filePathNum, sylNum):'
p254
sI113
S'    basePath = os.path.dirname(os.path.abspath(__file__))'
p255
sI114
S'    nounsFilePath = os.path.abspath(os.path.join(basePath, "../Project-Slojd/dict/nouns"))'
p256
ssg88
S'(fileNumP=2, sylNumP=2)'
p257
sg90
S'fetchFilePath'
p258
sasS'pyver'
p259
S'Python 2.7.3: /usr/bin/python (prefix: /usr)'
p260
sS'session'
p261
g62
(S's\x1a\x00\x00\x00<div><table></table></div>'
tRp262
sS'etype'
p263
S"<type 'exceptions.IOError'>"
p264
sS'date'
p265
S'Sun Mar  8 12:53:55 2015'
p266
sS'response'
p267
g62
(S's\xd72\x00\x00<div><table><tr><td style="font-weight:bold;vertical-align:top;">body</td><td style="vertical-align:top;">:</td><td><div>&lt;cStringIO.StringO object at 0x7ff3f05e6148&gt;</div></td></tr><tr><td style="font-weight:bold;vertical-align:top;">cookies</td><td style="vertical-align:top;">:</td><td><div><table><tr><td style="font-weight:bold;vertical-align:top;">session_id_haikumaker</td><td style="vertical-align:top;">:</td><td><div>127.0.0.1-dd0d09cf-87de-4721-b9d2-17d57b1d711f<table><tr><td style="font-weight:bold;vertical-align:top;">comment</td><td style="vertical-align:top;">:</td><td><div></div></td></tr><tr><td style="font-weight:bold;vertical-align:top;">domain</td><td style="vertical-align:top;">:</td><td><div></div></td></tr><tr><td style="font-weight:bold;vertical-align:top;">expires</td><td style="vertical-align:top;">:</td><td><div></div></td></tr><tr><td style="font-weight:bold;vertical-align:top;">httponly</td><td style="vertical-align:top;">:</td><td><div></div></td></tr><tr><td style="font-weight:bold;vertical-align:top;">max-age</td><td style="vertical-align:top;">:</td><td><div></div></td></tr><tr><td style="font-weight:bold;vertical-align:top;">path</td><td style="vertical-align:top;">:</td><td><div>/</div></td></tr><tr><td style="font-weight:bold;vertical-align:top;">secure</td><td style="vertical-align:top;">:</td><td><div></div></td></tr><tr><td style="font-weight:bold;vertical-align:top;">version</td><td style="vertical-align:top;">:</td><td><div></div></td></tr></table></div></td></tr></table></div></td></tr><tr><td style="font-weight:bold;vertical-align:top;">delimiters</td><td style="vertical-align:top;">:</td><td><div><table><tr><td><div>{{</div></td></tr><tr><td><div>}}</div></td></tr></table></div></td></tr><tr><td style="font-weight:bold;vertical-align:top;">files</td><td style="vertical-align:top;">:</td><td><div><table></table></div></td></tr><tr><td style="font-weight:bold;vertical-align:top;">flash</td><td style="vertical-align:top;">:</td><td><div></div></td></tr><tr><td style="font-weight:bold;vertical-align:top;">form_label_separator</td><td style="vertical-align:top;">:</td><td><div>: </div></td></tr><tr><td style="font-weight:bold;vertical-align:top;">formstyle</td><td style="vertical-align:top;">:</td><td><div>table3cols</div></td></tr><tr><td style="font-weight:bold;vertical-align:top;">generic_patterns</td><td style="vertical-align:top;">:</td><td><div><table><tr><td><div>*</div></td></tr></table></div></td></tr><tr><td style="font-weight:bold;vertical-align:top;">google_analytics_id</td><td style="vertical-align:top;">:</td><td><div>None</div></td></tr><tr><td style="font-weight:bold;vertical-align:top;">headers</td><td style="vertical-align:top;">:</td><td><div><table><tr><td style="font-weight:bold;vertical-align:top;">X-Powered-By</td><td style="vertical-align:top;">:</td><td><div>web2py</div></td></tr></table></div></td></tr><tr><td style="font-weight:bold;vertical-align:top;">logo</td><td style="vertical-align:top;">:</td><td><div><a class="brand" href="http://www.web2py.com/"><b>web<span>2</span>py</b>&trade;&nbsp;</a></div></td></tr><tr><td style="font-weight:bold;vertical-align:top;">menu</td><td style="vertical-align:top;">:</td><td><div><table><tr><td><div><table><tr><td><div>Home</div></td></tr><tr><td><div>False</div></td></tr><tr><td><div>/HaikuMaker/default/index</div></td></tr><tr><td><div><table></table></div></td></tr></table></div></td></tr><tr><td><div><table><tr><td><div><span class="highlighted">web2py</span></div></td></tr><tr><td><div>False</div></td></tr><tr><td><div>http://web2py.com</div></td></tr><tr><td><div><table><tr><td><div><table><tr><td><div>My Sites</div></td></tr><tr><td><div>False</div></td></tr><tr><td><div>/admin/default/site</div></td></tr></table></div></td></tr><tr><td><div><table><tr><td><div>This App</div></td></tr><tr><td><div>False</div></td></tr><tr><td><div>/admin/default/design/HaikuMaker</div></td></tr><tr><td><div>[(&lt;lazyT &#x27;Controller&#x27;&gt;, False, &#x27;/admin/default/edit/HaikuMaker/controllers/default.py&#x27;), (&lt;lazyT &#x27;View&#x27;&gt;, False, &#x27;/admin/default/edit/HaikuMaker/views/default/index.html&#x27;), (&lt;lazyT &#x27;Layout&#x27;&gt;, False, &#x27;/admin/default/edit/HaikuMaker/views/layout.html&#x27;), (&lt;lazyT &#x27;Stylesheet&#x27;&gt;, False, &#x27;/admin/default/edit/HaikuMaker/static/css/web2py.css&#x27;), (&lt;lazyT &#x27;DB Model&#x27;&gt;, False, &#x27;/admin/default/edit/HaikuMaker/models/db.py&#x27;), (&lt;lazyT &#x27;Menu Model&#x27;&gt;, False, &#x27;/admin/default/edit/HaikuMaker/models/menu.py&#x27;), (&lt;lazyT &#x27;Database&#x27;&gt;, False, &#x27;/HaikuMaker/appadmin/index&#x27;), (&lt;lazyT &#x27;Errors&#x27;&gt;, False, &#x27;/admin/default/errors/HaikuMaker&#x27;), (&lt;lazyT &#x27;About&#x27;&gt;, False, &#x27;/admin/default/about/HaikuMaker&#x27;)]</div></td></tr></table></div></td></tr><tr><td><div><table><tr><td><div>web2py.com</div></td></tr><tr><td><div>False</div></td></tr><tr><td><div>http://www.web2py.com</div></td></tr><tr><td><div>[(&lt;lazyT &#x27;Download&#x27;&gt;, False, &#x27;http://www.web2py.com/examples/default/download&#x27;), (&lt;lazyT &#x27;Support&#x27;&gt;, False, &#x27;http://www.web2py.com/examples/default/support&#x27;), (&lt;lazyT &#x27;Demo&#x27;&gt;, False, &#x27;http://web2py.com/demo_admin&#x27;), (&lt;lazyT &#x27;Quick Examples&#x27;&gt;, False, &#x27;http://web2py.com/examples/default/examples&#x27;), (&lt;lazyT &#x27;FAQ&#x27;&gt;, False, &#x27;http://web2py.com/AlterEgo&#x27;), (&lt;lazyT &#x27;Videos&#x27;&gt;, False, &#x27;http://www.web2py.com/examples/default/videos/&#x27;), (&lt;lazyT &#x27;Free Applications&#x27;&gt;, False, &#x27;http://web2py.com/appliances&#x27;), (&lt;lazyT &#x27;Plugins&#x27;&gt;, False, &#x27;http://web2py.com/plugins&#x27;), (&lt;lazyT &#x27;Layouts&#x27;&gt;, False, &#x27;http://web2py.com/layouts&#x27;), (&lt;lazyT &#x27;Recipes&#x27;&gt;, False, &#x27;http://web2pyslices.com/&#x27;), (&lt;lazyT &#x27;Semantic&#x27;&gt;, False, &#x27;http://web2py.com/semantic&#x27;)]</div></td></tr></table></div></td></tr><tr><td><div><table><tr><td><div>Documentation</div></td></tr><tr><td><div>False</div></td></tr><tr><td><div>http://www.web2py.com/book</div></td></tr><tr><td><div>[(&lt;lazyT &#x27;Preface&#x27;&gt;, False, &#x27;http://www.web2py.com/book/default/chapter/00&#x27;), (&lt;lazyT &#x27;Introduction&#x27;&gt;, False, &#x27;http://www.web2py.com/book/default/chapter/01&#x27;), (&lt;lazyT &#x27;Python&#x27;&gt;, False, &#x27;http://www.web2py.com/book/default/chapter/02&#x27;), (&lt;lazyT &#x27;Overview&#x27;&gt;, False, &#x27;http://www.web2py.com/book/default/chapter/03&#x27;), (&lt;lazyT &#x27;The Core&#x27;&gt;, False, &#x27;http://www.web2py.com/book/default/chapter/04&#x27;), (&lt;lazyT &#x27;The Views&#x27;&gt;, False, &#x27;http://www.web2py.com/book/default/chapter/05&#x27;), (&lt;lazyT &#x27;Database&#x27;&gt;, False, &#x27;http://www.web2py.com/book/default/chapter/06&#x27;), (&lt;lazyT &#x27;Forms and Validators&#x27;&gt;, False, &#x27;http://www.web2py.com/book/default/chapter/07&#x27;), (&lt;lazyT &#x27;Email and SMS&#x27;&gt;, False, &#x27;http://www.web2py.com/book/default/chapter/08&#x27;), (&lt;lazyT &#x27;Access Control&#x27;&gt;, False, &#x27;http://www.web2py.com/book/default/chapter/09&#x27;), (&lt;lazyT &#x27;Services&#x27;&gt;, False, &#x27;http://www.web2py.com/book/default/chapter/10&#x27;), (&lt;lazyT &#x27;Ajax Recipes&#x27;&gt;, False, &#x27;http://www.web2py.com/book/default/chapter/11&#x27;), (&lt;lazyT &#x27;Components and Plugins&#x27;&gt;, False, &#x27;http://www.web2py.com/book/default/chapter/12&#x27;), (&lt;lazyT &#x27;Deployment Recipes&#x27;&gt;, False, &#x27;http://www.web2py.com/book/default/chapter/13&#x27;), (&lt;lazyT &#x27;Other Recipes&#x27;&gt;, False, &#x27;http://www.web2py.com/book/default/chapter/14&#x27;), (&lt;lazyT &#x27;Buy this book&#x27;&gt;, False, &#x27;http://stores.lulu.com/web2py&#x27;)]</div></td></tr></table></div></td></tr><tr><td><div><table><tr><td><div>Community</div></td></tr><tr><td><div>False</div></td></tr><tr><td><div>None</div></td></tr><tr><td><div>[(&lt;lazyT &#x27;Groups&#x27;&gt;, False, &#x27;http://www.web2py.com/examples/default/usergroups&#x27;), (&lt;lazyT &#x27;Twitter&#x27;&gt;, False, &#x27;http://twitter.com/web2py&#x27;), (&lt;lazyT &#x27;Live Chat&#x27;&gt;, False, &#x27;http://webchat.freenode.net/?channels=web2py&#x27;)]</div></td></tr></table></div></td></tr><tr><td><div><table><tr><td><div>Plugins</div></td></tr><tr><td><div>False</div></td></tr><tr><td><div>None</div></td></tr><tr><td><div>[(&#x27;plugin_wiki&#x27;, False, &#x27;http://web2py.com/examples/default/download&#x27;), (&lt;lazyT &#x27;Other Plugins&#x27;&gt;, False, &#x27;http://web2py.com/plugins&#x27;), (&lt;lazyT &#x27;Layout Plugins&#x27;&gt;, False, &#x27;http://web2py.com/layouts&#x27;)]</div></td></tr></table></div></td></tr></table></div></td></tr></table></div></td></tr></table></div></td></tr><tr><td style="font-weight:bold;vertical-align:top;">meta</td><td style="vertical-align:top;">:</td><td><div><table><tr><td style="font-weight:bold;vertical-align:top;">author</td><td style="vertical-align:top;">:</td><td><div>Your Name &lt;you@example.com&gt;</div></td></tr><tr><td style="font-weight:bold;vertical-align:top;">generator</td><td style="vertical-align:top;">:</td><td><div>Web2py Web Framework</div></td></tr><tr><td style="font-weight:bold;vertical-align:top;">keywords</td><td style="vertical-align:top;">:</td><td><div>web2py, python, framework</div></td></tr></table></div></td></tr><tr><td style="font-weight:bold;vertical-align:top;">models_to_run</td><td style="vertical-align:top;">:</td><td><div><table><tr><td><div>^\\w+\\.py$</div></td></tr><tr><td><div>^default/\\w+\\.py$</div></td></tr><tr><td><div>^default/index/\\w+\\.py$</div></td></tr></table></div></td></tr><tr><td style="font-weight:bold;vertical-align:top;">postprocessing</td><td style="vertical-align:top;">:</td><td><div><table></table></div></td></tr><tr><td style="font-weight:bold;vertical-align:top;">session_client</td><td style="vertical-align:top;">:</td><td><div>127.0.0.1</div></td></tr><tr><td style="font-weight:bold;vertical-align:top;">session_cookie_compression_level</td><td style="vertical-align:top;">:</td><td><div>None</div></td></tr><tr><td style="font-weight:bold;vertical-align:top;">session_cookie_expires</td><td style="vertical-align:top;">:</td><td><div>None</div></td></tr><tr><td style="font-weight:bold;vertical-align:top;">session_cookie_key</td><td style="vertical-align:top;">:</td><td><div>None</div></td></tr><tr><td style="font-weight:bold;vertical-align:top;">session_data_name</td><td style="vertical-align:top;">:</td><td><div>session_data_haikumaker</div></td></tr><tr><td style="font-weight:bold;vertical-align:top;">session_file</td><td style="vertical-align:top;">:</td><td><div>&lt;open file &#x27;/home/andy/lib/python/web2py/applications/HaikuMaker/sessions/141/0b5/127.0.0.1-dd0d09cf-87de-4721-b9d2-17d57b1d711f&#x27;, mode &#x27;rb+&#x27; at 0x7ff3f0396540&gt;</div></td></tr><tr><td style="font-weight:bold;vertical-align:top;">session_filename</td><td style="vertical-align:top;">:</td><td><div>/home/andy/lib/python/web2py/applications/HaikuMaker/sessions/127.0.0.1-dd0d09cf-87de-4721-b9d2-17d57b1d711f</div></td></tr><tr><td style="font-weight:bold;vertical-align:top;">session_hash</td><td style="vertical-align:top;">:</td><td><div>9e28072001102da7f11de1b9f109b8a3</div></td></tr><tr><td style="font-weight:bold;vertical-align:top;">session_id</td><td style="vertical-align:top;">:</td><td><div>127.0.0.1-dd0d09cf-87de-4721-b9d2-17d57b1d711f</div></td></tr><tr><td style="font-weight:bold;vertical-align:top;">session_id_name</td><td style="vertical-align:top;">:</td><td><div>session_id_haikumaker</div></td></tr><tr><td style="font-weight:bold;vertical-align:top;">session_locked</td><td style="vertical-align:top;">:</td><td><div>True</div></td></tr><tr><td style="font-weight:bold;vertical-align:top;">session_masterapp</td><td style="vertical-align:top;">:</td><td><div>HaikuMaker</div></td></tr><tr><td style="font-weight:bold;vertical-align:top;">session_new</td><td style="vertical-align:top;">:</td><td><div>False</div></td></tr><tr><td style="font-weight:bold;vertical-align:top;">session_storage_type</td><td style="vertical-align:top;">:</td><td><div>file</div></td></tr><tr><td style="font-weight:bold;vertical-align:top;">status</td><td style="vertical-align:top;">:</td><td><div>200</div></td></tr><tr><td style="font-weight:bold;vertical-align:top;">subtitle</td><td style="vertical-align:top;">:</td><td><div></div></td></tr><tr><td style="font-weight:bold;vertical-align:top;">title</td><td style="vertical-align:top;">:</td><td><div>Haikumaker</div></td></tr><tr><td style="font-weight:bold;vertical-align:top;">view</td><td style="vertical-align:top;">:</td><td><div>default/index.html</div></td></tr></table></div>'
tRp268
sS'locals'
p269
(dp270
S'sylNumP'
p271
S'2'
sS'fileNumP'
p272
S'2'
sssS'traceback'
p273
S'Traceback (most recent call last):\n  File "/home/andy/lib/python/web2py/gluon/restricted.py", line 224, in restricted\n    exec ccode in environment\n  File "/home/andy/lib/python/web2py/applications/HaikuMaker/controllers/default.py", line 226, in <module>\n  File "/home/andy/lib/python/web2py/gluon/globals.py", line 393, in <lambda>\n    self._caller = lambda f: f()\n  File "/home/andy/lib/python/web2py/applications/HaikuMaker/controllers/default.py", line 14, in index\n    blah2 = haikuType2()\n  File "/home/andy/lib/python/web2py/applications/HaikuMaker/controllers/default.py", line 219, in haikuType2\n    makeLine(sylList3, fileList3) + "\\n")\n  File "/home/andy/lib/python/web2py/applications/HaikuMaker/controllers/default.py", line 174, in makeLine\n    tempLines = getWordFile(tempFi, tempSy)\n  File "/home/andy/lib/python/web2py/applications/HaikuMaker/controllers/default.py", line 86, in getWordFile\n    return getAdjFile(sylNumR)\n  File "/home/andy/lib/python/web2py/applications/HaikuMaker/controllers/default.py", line 96, in getAdjFile\n    return filter(None, fetchFile(2, sylNumAj))\n  File "/home/andy/lib/python/web2py/applications/HaikuMaker/controllers/default.py", line 105, in fetchFile\n    fileLines = fetchFilePath(fileNum, sylNum).read().split(\'\\r\\n\')\n  File "/home/andy/lib/python/web2py/applications/HaikuMaker/controllers/default.py", line 110, in fetchFilePath\n    return open(fetchFileStrPath(fileNumP, sylNumP), "r")\nIOError: [Errno 2] No such file or directory: \'/home/andy/lib/python/web2py/applications/HaikuMaker/Project-Slojd/dict/adjectives/2syllableadjectives.txt\'\n'
p274
s.